; Function Attrs: mustprogress nounwind uwtable
define hidden noundef zeroext i1 @_ZN12JfrOptionSet35parse_start_flight_recording_optionEPPK12JavaVMOptionPc(ptr nocapture noundef readonly %0, ptr nocapture noundef %1) local_unnamed_addr #3 align 2 {
  %3 = load i8, ptr %1, align 1
  %4 = icmp eq i8 %3, 0
  br i1 %4, label %5, label %10

5:                                                ; preds = %2
  %6 = load ptr, ptr %0, align 8
  store ptr @.str.59, ptr %6, align 8
  %7 = load ptr, ptr %0, align 8
  %8 = load ptr, ptr %7, align 8
  %9 = getelementptr inbounds i8, ptr %8, i64 25
  br label %12

10:                                               ; preds = %2
  store i8 61, ptr %1, align 1
  %11 = getelementptr inbounds i8, ptr %1, i64 1
  br label %12

12:                                               ; preds = %10, %5
  %.0 = phi ptr [ %9, %5 ], [ %11, %10 ]
  %13 = tail call i64 @strlen(ptr noundef nonnull dereferenceable(1) %.0) #19
  %14 = load ptr, ptr @_ZL36start_flight_recording_options_array, align 8
  %15 = icmp eq ptr %14, null
  br i1 %15, label %16, label %25

16:                                               ; preds = %12
  %17 = tail call noundef ptr @_ZN6AnyObjnwEm8MEMFLAGS(i64 noundef 24, i8 noundef zeroext 16) #18
  %18 = icmp eq ptr %17, null
  br i1 %18, label %24, label %19

19:                                               ; preds = %16
  %20 = tail call noundef ptr @_ZN27GrowableArrayCHeapAllocator8allocateEii8MEMFLAGS(i32 noundef 8, i32 noundef 8, i8 noundef zeroext 16) #18
  store i32 0, ptr %17, align 4
  %21 = getelementptr inbounds i8, ptr %17, i64 4
  store i32 8, ptr %21, align 4
  %22 = getelementptr inbounds i8, ptr %17, i64 8
  store ptr %20, ptr %22, align 8
  tail call void @llvm.memset.p0.i64(ptr noundef nonnull align 8 dereferenceable(64) %20, i8 0, i64 64, i1 false)
  %23 = getelementptr inbounds i8, ptr %17, i64 16
  store i64 33, ptr %23, align 8
  br label %24

24:                                               ; preds = %19, %16
  store ptr %17, ptr @_ZL36start_flight_recording_options_array, align 8
  br label %25

25:                                               ; preds = %24, %12
  %26 = add i64 %13, 1
  %27 = tail call noundef ptr @_Z12AllocateHeapm8MEMFLAGSN17AllocFailStrategy13AllocFailEnumE(i64 noundef %26, i8 noundef zeroext 16, i32 noundef 0) #18
  %28 = tail call ptr @strncpy(ptr noundef %27, ptr noundef nonnull %.0, i64 noundef %26) #18
  %29 = load ptr, ptr @_ZL36start_flight_recording_options_array, align 8
  %30 = load i32, ptr %29, align 8
  %31 = getelementptr inbounds i8, ptr %29, i64 4
  %32 = load i32, ptr %31, align 4
  %33 = icmp eq i32 %30, %32
  br i1 %33, label %34, label %_ZN26GrowableArrayWithAllocatorIPKc13GrowableArrayIS1_EE6appendERKS1_.exit

34:                                               ; preds = %25
  %35 = add nsw i32 %30, 1
  %36 = icmp sgt i32 %30, -1
  %37 = xor i32 %30, -2147483648
  %38 = and i32 %37, %35
  %39 = icmp eq i32 %38, 0
  %40 = and i1 %36, %39
  %41 = tail call range(i32 0, 33) i32 @llvm.ctlz.i32(i32 %35, i1 true)
  %42 = sub nuw nsw i32 32, %41
  %43 = shl nuw i32 1, %42
  %.0.i.i.i.i = select i1 %40, i32 %35, i32 %43
  tail call void @_ZN26GrowableArrayWithAllocatorIPKc13GrowableArrayIS1_EE9expand_toEi(ptr noundef nonnull align 8 dereferenceable(16) %29, i32 noundef %.0.i.i.i.i)
  %.pre.i = load i32, ptr %29, align 8
  br label %_ZN26GrowableArrayWithAllocatorIPKc13GrowableArrayIS1_EE6appendERKS1_.exit

_ZN26GrowableArrayWithAllocatorIPKc13GrowableArrayIS1_EE6appendERKS1_.exit: ; preds = %25, %34
  %44 = phi i32 [ %.pre.i, %34 ], [ %30, %25 ]
  %45 = add nsw i32 %44, 1
  store i32 %45, ptr %29, align 8
  %46 = getelementptr inbounds i8, ptr %29, i64 8
  %47 = load ptr, ptr %46, align 8
  %48 = sext i32 %44 to i64
  %49 = getelementptr inbounds ptr, ptr %47, i64 %48
  store ptr %27, ptr %49, align 8
  ret i1 false
}